target datalayout = "e-m:e-p270:32:32-p271:32:32-p272:64:64-i64:64-i128:128-f80:128-n8:16:32:64-S128"
target triple = "x86_64-unknown-linux-gnu"

module asm ".section\09\22.initcall6.init\22, \22a\22\09\09"
module asm "__initcall__kmod_sch_blackhole__582_41_blackhole_init6:\09\09\09"
module asm ".long\09blackhole_init - .\09"
module asm ".previous\09\09\09\09\09"

%struct.Qdisc_ops = type { ptr, ptr, [16 x i8], i32, i32, ptr, ptr, ptr, ptr, ptr, ptr, ptr, ptr, ptr, ptr, ptr, ptr, ptr, ptr, ptr, ptr, ptr }

@__UNIQUE_ID___addressable_blackhole_init583 = internal global ptr @blackhole_init, section ".discard.addressable", align 8
@blackhole_qdisc_ops = internal global %struct.Qdisc_ops { ptr null, ptr null, [16 x i8] c"blackhole\00\00\00\00\00\00\00", i32 0, i32 0, ptr @blackhole_enqueue, ptr @blackhole_dequeue, ptr @blackhole_dequeue, ptr null, ptr null, ptr null, ptr null, ptr null, ptr null, ptr null, ptr null, ptr null, ptr null, ptr null, ptr null, ptr null, ptr null }, section ".data..read_mostly", align 8
@llvm.compiler.used = appending global [1 x ptr] [ptr @__UNIQUE_ID___addressable_blackhole_init583], section "llvm.metadata"

; Function Attrs: cold fn_ret_thunk_extern nounwind null_pointer_is_valid optsize
define internal i32 @blackhole_init() #0 section ".init.text" align 16 {
  %1 = tail call i32 @register_qdisc(ptr noundef nonnull @blackhole_qdisc_ops) #4
  ret i32 %1
}

; Function Attrs: null_pointer_is_valid
declare dso_local i32 @register_qdisc(ptr noundef) local_unnamed_addr #1

; Function Attrs: fn_ret_thunk_extern mustprogress nofree norecurse nosync nounwind null_pointer_is_valid willreturn memory(argmem: readwrite)
define internal noundef i32 @blackhole_enqueue(ptr noundef %0, ptr nocapture noundef %1, ptr nocapture noundef %2) #2 align 16 {
  %4 = load ptr, ptr %2, align 8
  store ptr %4, ptr %0, align 8
  store ptr %0, ptr %2, align 8
  %5 = getelementptr inbounds i8, ptr %1, i64 200
  %6 = load i32, ptr %5, align 4
  %7 = add i32 %6, 1
  store i32 %7, ptr %5, align 4
  ret i32 131072
}

; Function Attrs: fn_ret_thunk_extern mustprogress nofree norecurse nosync nounwind null_pointer_is_valid willreturn memory(none)
define internal noalias noundef ptr @blackhole_dequeue(ptr nocapture readnone %0) #3 align 16 {
  ret ptr null
}


!llvm.module.flags = !{!0, !1, !2, !3, !4}

!0 = !{i32 1, !"wchar_size", i32 2}
!1 = !{i32 8, !"cf-protection-branch", i32 1}
!2 = !{i32 4, !"function_return_thunk_extern", i32 1}
!3 = !{i32 4, !"indirect_branch_cs_prefix", i32 1}
!4 = !{i32 4, !"SkipRaxSetup", i32 1}
